target datalayout = "e-m:e-p270:32:32-p271:32:32-p272:64:64-i64:64-i128:128-f80:128-n8:16:32:64-S128"
target triple = "x86_64-pc-linux-gnu"

%struct.pm_buffer_t = type { i64, i64, ptr }
%struct.__va_list_tag = type { i32, i32, ptr, ptr }

; Function Attrs: inlinehint nounwind sspstrong uwtable
define internal zeroext i1 @pm_buffer_append_length(ptr noundef %0, i64 noundef %1) #3 {
  %3 = alloca i1, align 1
  %4 = alloca ptr, align 8
  %5 = alloca i64, align 8
  %6 = alloca i64, align 8
  %7 = alloca i32, align 4
  store ptr %0, ptr %4, align 8, !tbaa !7
  store i64 %1, ptr %5, align 8, !tbaa !11
  call void @llvm.lifetime.start.p0(i64 8, ptr %6) #13
  %8 = load ptr, ptr %4, align 8, !tbaa !7
  %9 = getelementptr inbounds nuw %struct.pm_buffer_t, ptr %8, i32 0, i32 0
  %10 = load i64, ptr %9, align 8, !tbaa !13
  %11 = load i64, ptr %5, align 8, !tbaa !11
  %12 = add i64 %10, %11
  store i64 %12, ptr %6, align 8, !tbaa !11
  %13 = load i64, ptr %6, align 8, !tbaa !11
  %14 = load ptr, ptr %4, align 8, !tbaa !7
  %15 = getelementptr inbounds nuw %struct.pm_buffer_t, ptr %14, i32 0, i32 1
  %16 = load i64, ptr %15, align 8, !tbaa !16
  %17 = icmp ugt i64 %13, %16
  br i1 %17, label %18, label %54

18:                                               ; preds = %2
  %19 = load ptr, ptr %4, align 8, !tbaa !7
  %20 = getelementptr inbounds nuw %struct.pm_buffer_t, ptr %19, i32 0, i32 1
  %21 = load i64, ptr %20, align 8, !tbaa !16
  %22 = icmp eq i64 %21, 0
  br i1 %22, label %23, label %26

23:                                               ; preds = %18
  %24 = load ptr, ptr %4, align 8, !tbaa !7
  %25 = getelementptr inbounds nuw %struct.pm_buffer_t, ptr %24, i32 0, i32 1
  store i64 1, ptr %25, align 8, !tbaa !16
  br label %26

26:                                               ; preds = %23, %18
  br label %27

27:                                               ; preds = %33, %26
  %28 = load i64, ptr %6, align 8, !tbaa !11
  %29 = load ptr, ptr %4, align 8, !tbaa !7
  %30 = getelementptr inbounds nuw %struct.pm_buffer_t, ptr %29, i32 0, i32 1
  %31 = load i64, ptr %30, align 8, !tbaa !16
  %32 = icmp ugt i64 %28, %31
  br i1 %32, label %33, label %38

33:                                               ; preds = %27
  %34 = load ptr, ptr %4, align 8, !tbaa !7
  %35 = getelementptr inbounds nuw %struct.pm_buffer_t, ptr %34, i32 0, i32 1
  %36 = load i64, ptr %35, align 8, !tbaa !16
  %37 = mul i64 %36, 2
  store i64 %37, ptr %35, align 8, !tbaa !16
  br label %27, !llvm.loop !18

38:                                               ; preds = %27
  %39 = load ptr, ptr %4, align 8, !tbaa !7
  %40 = getelementptr inbounds nuw %struct.pm_buffer_t, ptr %39, i32 0, i32 2
  %41 = load ptr, ptr %40, align 8, !tbaa !17
  %42 = load ptr, ptr %4, align 8, !tbaa !7
  %43 = getelementptr inbounds nuw %struct.pm_buffer_t, ptr %42, i32 0, i32 1
  %44 = load i64, ptr %43, align 8, !tbaa !16
  %45 = call ptr @realloc(ptr noundef %41, i64 noundef %44) #14
  %46 = load ptr, ptr %4, align 8, !tbaa !7
  %47 = getelementptr inbounds nuw %struct.pm_buffer_t, ptr %46, i32 0, i32 2
  store ptr %45, ptr %47, align 8, !tbaa !17
  %48 = load ptr, ptr %4, align 8, !tbaa !7
  %49 = getelementptr inbounds nuw %struct.pm_buffer_t, ptr %48, i32 0, i32 2
  %50 = load ptr, ptr %49, align 8, !tbaa !17
  %51 = icmp eq ptr %50, null
  br i1 %51, label %52, label %53

52:                                               ; preds = %38
  store i1 false, ptr %3, align 1
  store i32 1, ptr %7, align 4
  br label %58

53:                                               ; preds = %38
  br label %54

54:                                               ; preds = %53, %2
  %55 = load i64, ptr %6, align 8, !tbaa !11
  %56 = load ptr, ptr %4, align 8, !tbaa !7
  %57 = getelementptr inbounds nuw %struct.pm_buffer_t, ptr %56, i32 0, i32 0
  store i64 %55, ptr %57, align 8, !tbaa !13
  store i1 true, ptr %3, align 1
  store i32 1, ptr %7, align 4
  br label %58

58:                                               ; preds = %54, %52
  call void @llvm.lifetime.end.p0(i64 8, ptr %6) #13
  %59 = load i1, ptr %3, align 1
  ret i1 %59
}

; Function Attrs: alwaysinline
define internal i32 @vsnprintf.inline(ptr noalias %0, i64 %1, ptr noalias %2, ptr %3) #6 {
  %5 = alloca ptr, align 8
  %6 = alloca i64, align 8
  %7 = alloca ptr, align 8
  %8 = alloca ptr, align 8
  store ptr %0, ptr %5, align 8, !tbaa !22
  store i64 %1, ptr %6, align 8, !tbaa !11
  store ptr %2, ptr %7, align 8, !tbaa !22
  store ptr %3, ptr %8, align 8, !tbaa !23
  %9 = load ptr, ptr %5, align 8, !tbaa !22
  %10 = load i64, ptr %6, align 8, !tbaa !11
  %11 = load ptr, ptr %5, align 8, !tbaa !22
  %12 = call i64 @llvm.objectsize.i64.p0(ptr %11, i1 false, i1 true, i1 false)
  %13 = load ptr, ptr %7, align 8, !tbaa !22
  %14 = load ptr, ptr %8, align 8, !tbaa !23
  %15 = call i32 @__vsnprintf_chk(ptr noundef %9, i64 noundef %10, i32 noundef 1, i64 noundef %12, ptr noundef %13, ptr noundef %14)
  ret i32 %15
}

; Function Attrs: nounwind sspstrong uwtable
define hidden void @pm_buffer_append_format(ptr noundef %0, ptr noundef %1, ...) #0 {
  %3 = alloca ptr, align 8
  %4 = alloca ptr, align 8
  %5 = alloca [1 x %struct.__va_list_tag], align 16
  %6 = alloca i32, align 4
  %7 = alloca i32, align 4
  %8 = alloca i64, align 8
  %9 = alloca i64, align 8
  store ptr %0, ptr %3, align 8, !tbaa !7
  store ptr %1, ptr %4, align 8, !tbaa !22
  call void @llvm.lifetime.start.p0(i64 24, ptr %5) #13
  %10 = getelementptr inbounds [1 x %struct.__va_list_tag], ptr %5, i64 0, i64 0
  call void @llvm.va_start.p0(ptr %10)
  call void @llvm.lifetime.start.p0(i64 4, ptr %6) #13
  %11 = load ptr, ptr %4, align 8, !tbaa !22
  %12 = getelementptr inbounds [1 x %struct.__va_list_tag], ptr %5, i64 0, i64 0
  %13 = call i32 @vsnprintf.inline(ptr noundef null, i64 noundef 0, ptr noundef %11, ptr noundef %12) #13
  store i32 %13, ptr %6, align 4, !tbaa !20
  %14 = getelementptr inbounds [1 x %struct.__va_list_tag], ptr %5, i64 0, i64 0
  call void @llvm.va_end.p0(ptr %14)
  %15 = load i32, ptr %6, align 4, !tbaa !20
  %16 = icmp slt i32 %15, 0
  br i1 %16, label %17, label %18

17:                                               ; preds = %2
  store i32 1, ptr %7, align 4
  br label %45

18:                                               ; preds = %2
  call void @llvm.lifetime.start.p0(i64 8, ptr %8) #13
  %19 = load i32, ptr %6, align 4, !tbaa !20
  %20 = add i32 %19, 1
  %21 = sext i32 %20 to i64
  store i64 %21, ptr %8, align 8, !tbaa !11
  call void @llvm.lifetime.start.p0(i64 8, ptr %9) #13
  %22 = load ptr, ptr %3, align 8, !tbaa !7
  %23 = getelementptr inbounds nuw %struct.pm_buffer_t, ptr %22, i32 0, i32 0
  %24 = load i64, ptr %23, align 8, !tbaa !13
  store i64 %24, ptr %9, align 8, !tbaa !11
  %25 = load ptr, ptr %3, align 8, !tbaa !7
  %26 = load i64, ptr %8, align 8, !tbaa !11
  %27 = call zeroext i1 @pm_buffer_append_length(ptr noundef %25, i64 noundef %26)
  br i1 %27, label %28, label %44

28:                                               ; preds = %18
  %29 = getelementptr inbounds [1 x %struct.__va_list_tag], ptr %5, i64 0, i64 0
  call void @llvm.va_start.p0(ptr %29)
  %30 = load ptr, ptr %3, align 8, !tbaa !7
  %31 = getelementptr inbounds nuw %struct.pm_buffer_t, ptr %30, i32 0, i32 2
  %32 = load ptr, ptr %31, align 8, !tbaa !17
  %33 = load i64, ptr %9, align 8, !tbaa !11
  %34 = getelementptr i8, ptr %32, i64 %33
  %35 = load i64, ptr %8, align 8, !tbaa !11
  %36 = load ptr, ptr %4, align 8, !tbaa !22
  %37 = getelementptr inbounds [1 x %struct.__va_list_tag], ptr %5, i64 0, i64 0
  %38 = call i32 @vsnprintf.inline(ptr noundef %34, i64 noundef %35, ptr noundef %36, ptr noundef %37) #13
  %39 = getelementptr inbounds [1 x %struct.__va_list_tag], ptr %5, i64 0, i64 0
  call void @llvm.va_end.p0(ptr %39)
  %40 = load ptr, ptr %3, align 8, !tbaa !7
  %41 = getelementptr inbounds nuw %struct.pm_buffer_t, ptr %40, i32 0, i32 0
  %42 = load i64, ptr %41, align 8, !tbaa !13
  %43 = add i64 %42, -1
  store i64 %43, ptr %41, align 8, !tbaa !13
  br label %44

44:                                               ; preds = %28, %18
  call void @llvm.lifetime.end.p0(i64 8, ptr %9) #13
  call void @llvm.lifetime.end.p0(i64 8, ptr %8) #13
  store i32 0, ptr %7, align 4
  br label %45

45:                                               ; preds = %44, %17
  call void @llvm.lifetime.end.p0(i64 4, ptr %6) #13
  call void @llvm.lifetime.end.p0(i64 24, ptr %5) #13
  %46 = load i32, ptr %7, align 4
  switch i32 %46, label %48 [
    i32 0, label %47
    i32 1, label %47
  ]

47:                                               ; preds = %45, %45
  ret void

48:                                               ; preds = %45
  unreachable
}