; Function Attrs: nounwind sspstrong uwtable
define hidden void @pm_buffer_append_format(ptr noundef captures(none) %0, ptr noundef %1, ...) local_unnamed_addr #4 {
  %3 = alloca [1 x %struct.__va_list_tag], align 16
  call void @llvm.lifetime.start.p0(i64 24, ptr nonnull %3) #19
  call void @llvm.va_start.p0(ptr nonnull %3)
  %4 = call i32 @__vsnprintf_chk(ptr noundef null, i64 noundef 0, i32 noundef 1, i64 noundef -1, ptr noundef %1, ptr noundef nonnull %3) #19
  call void @llvm.va_end.p0(ptr nonnull %3)
  %5 = icmp slt i32 %4, 0
  br i1 %5, label %pm_buffer_append_length.exit, label %6

6:                                                ; preds = %2
  %7 = add nuw i32 %4, 1
  %8 = sext i32 %7 to i64
  %9 = load i64, ptr %0, align 8, !tbaa !7
  %10 = add i64 %9, %8
  %11 = getelementptr inbounds nuw i8, ptr %0, i64 8
  %12 = load i64, ptr %11, align 8, !tbaa !14
  %13 = icmp ugt i64 %10, %12
  br i1 %13, label %14, label %27

14:                                               ; preds = %6
  %15 = icmp eq i64 %12, 0
  br i1 %15, label %16, label %17

16:                                               ; preds = %14
  store i64 1, ptr %11, align 8, !tbaa !14
  br label %17

17:                                               ; preds = %16, %14
  %.promoted.i = phi i64 [ 1, %16 ], [ %12, %14 ]
  %18 = icmp ugt i64 %10, %.promoted.i
  br i1 %18, label %.lr.ph.i, label %22

.lr.ph.i:                                         ; preds = %17, %.lr.ph.i
  %19 = phi i64 [ %20, %.lr.ph.i ], [ %.promoted.i, %17 ]
  %20 = shl i64 %19, 1
  %21 = icmp ugt i64 %10, %20
  br i1 %21, label %.lr.ph.i, label %._crit_edge.i, !llvm.loop !16

._crit_edge.i:                                    ; preds = %.lr.ph.i
  store i64 %20, ptr %11, align 8, !tbaa !14
  br label %22

22:                                               ; preds = %._crit_edge.i, %17
  %.lcssa.i = phi i64 [ %20, %._crit_edge.i ], [ %.promoted.i, %17 ]
  %23 = getelementptr inbounds nuw i8, ptr %0, i64 16
  %24 = load ptr, ptr %23, align 8, !tbaa !15
  %25 = call ptr @realloc(ptr noundef %24, i64 noundef %.lcssa.i) #18
  store ptr %25, ptr %23, align 8, !tbaa !15
  %26 = icmp eq ptr %25, null
  br i1 %26, label %pm_buffer_append_length.exit, label %27

27:                                               ; preds = %6, %22
  store i64 %10, ptr %0, align 8, !tbaa !7
  call void @llvm.va_start.p0(ptr nonnull %3)
  %28 = getelementptr inbounds nuw i8, ptr %0, i64 16
  %29 = load ptr, ptr %28, align 8, !tbaa !15
  %30 = getelementptr i8, ptr %29, i64 %9
  %31 = call i32 @__vsnprintf_chk(ptr noundef %30, i64 noundef range(i64 -2147483648, 2147483648) %8, i32 noundef 1, i64 noundef -1, ptr noundef %1, ptr noundef nonnull %3) #19
  call void @llvm.va_end.p0(ptr nonnull %3)
  %32 = load i64, ptr %0, align 8, !tbaa !7
  %33 = add i64 %32, -1
  store i64 %33, ptr %0, align 8, !tbaa !7
  br label %pm_buffer_append_length.exit

pm_buffer_append_length.exit:                     ; preds = %22, %27, %2
  call void @llvm.lifetime.end.p0(i64 24, ptr nonnull %3) #19
  ret void
}